target datalayout = "e-m:e-p270:32:32-p271:32:32-p272:64:64-i64:64-i128:128-f80:128-n8:16:32:64-S128"
target triple = "x86_64-pc-linux-gnu"

@.str.16 = private unnamed_addr constant [5 x i8] c"/../\00", align 1

; Function Attrs: null_pointer_is_valid sspstrong uwtable
define internal ptr @pbl_canonicalize_absolute_filepath(ptr noundef %0) #0 {
  %2 = alloca ptr, align 8
  %3 = alloca ptr, align 8
  %4 = alloca i32, align 4
  %5 = alloca i32, align 4
  %6 = alloca ptr, align 8
  %7 = alloca i64, align 8
  %8 = alloca i64, align 8
  %9 = alloca ptr, align 8
  %10 = alloca ptr, align 8
  %11 = alloca i32, align 4
  store ptr %0, ptr %3, align 8
  call void @llvm.lifetime.start.p0(i64 4, ptr %4) #13
  call void @llvm.lifetime.start.p0(i64 4, ptr %5) #13
  call void @llvm.lifetime.start.p0(i64 8, ptr %6) #13
  call void @llvm.lifetime.start.p0(i64 8, ptr %7) #13
  %12 = load ptr, ptr %3, align 8
  %13 = call i64 @strlen(ptr noundef %12) #16
  %14 = add i64 %13, 1
  store i64 %14, ptr %7, align 8
  call void @llvm.lifetime.start.p0(i64 8, ptr %8) #13
  store i64 1, ptr %8, align 8
  call void @llvm.lifetime.start.p0(i64 8, ptr %9) #13
  %15 = load i64, ptr %8, align 8
  %16 = icmp eq i64 %15, 1
  br i1 %16, label %17, label %20

17:                                               ; preds = %1
  %18 = load i64, ptr %7, align 8
  %19 = call noalias ptr @g_malloc(i64 noundef %18) #14
  store ptr %19, ptr %9, align 8
  br label %41

20:                                               ; preds = %1
  %21 = load i64, ptr %7, align 8
  %22 = call i1 @llvm.is.constant.i64(i64 %21)
  br i1 %22, label %23, label %36

23:                                               ; preds = %20
  %24 = load i64, ptr %8, align 8
  %25 = icmp eq i64 %24, 0
  br i1 %25, label %31, label %26

26:                                               ; preds = %23
  %27 = load i64, ptr %7, align 8
  %28 = load i64, ptr %8, align 8
  %29 = udiv i64 -1, %28
  %30 = icmp ule i64 %27, %29
  br i1 %30, label %31, label %36

31:                                               ; preds = %26, %23
  %32 = load i64, ptr %7, align 8
  %33 = load i64, ptr %8, align 8
  %34 = mul i64 %32, %33
  %35 = call noalias ptr @g_malloc(i64 noundef %34) #14
  store ptr %35, ptr %9, align 8
  br label %40

36:                                               ; preds = %26, %20
  %37 = load i64, ptr %7, align 8
  %38 = load i64, ptr %8, align 8
  %39 = call noalias ptr @g_malloc_n(i64 noundef %37, i64 noundef %38) #15
  store ptr %39, ptr %9, align 8
  br label %40

40:                                               ; preds = %36, %31
  br label %41

41:                                               ; preds = %40, %17
  %42 = load ptr, ptr %9, align 8
  store ptr %42, ptr %10, align 8
  call void @llvm.lifetime.end.p0(i64 8, ptr %9) #13
  call void @llvm.lifetime.end.p0(i64 8, ptr %8) #13
  call void @llvm.lifetime.end.p0(i64 8, ptr %7) #13
  %43 = load ptr, ptr %10, align 8
  store ptr %43, ptr %6, align 8
  store i32 0, ptr %4, align 4
  store i32 0, ptr %5, align 4
  br label %44

44:                                               ; preds = %100, %41
  %45 = load ptr, ptr %3, align 8
  %46 = load i32, ptr %4, align 4
  %47 = sext i32 %46 to i64
  %48 = getelementptr i8, ptr %45, i64 %47
  %49 = load i8, ptr %48, align 1
  %50 = sext i8 %49 to i32
  %51 = icmp ne i32 %50, 0
  br i1 %51, label %52, label %103

52:                                               ; preds = %44
  %53 = load ptr, ptr %3, align 8
  %54 = load i32, ptr %4, align 4
  %55 = sext i32 %54 to i64
  %56 = getelementptr i8, ptr %53, i64 %55
  %57 = load i8, ptr %56, align 1
  %58 = sext i8 %57 to i32
  %59 = icmp eq i32 %58, 92
  br i1 %59, label %68, label %60

60:                                               ; preds = %52
  %61 = load ptr, ptr %3, align 8
  %62 = load i32, ptr %4, align 4
  %63 = sext i32 %62 to i64
  %64 = getelementptr i8, ptr %61, i64 %63
  %65 = load i8, ptr %64, align 1
  %66 = sext i8 %65 to i32
  %67 = icmp eq i32 %66, 47
  br i1 %67, label %68, label %88

68:                                               ; preds = %60, %52
  %69 = load i32, ptr %5, align 4
  %70 = icmp sgt i32 %69, 0
  br i1 %70, label %71, label %81

71:                                               ; preds = %68
  %72 = load ptr, ptr %6, align 8
  %73 = load i32, ptr %5, align 4
  %74 = sub i32 %73, 1
  %75 = sext i32 %74 to i64
  %76 = getelementptr i8, ptr %72, i64 %75
  %77 = load i8, ptr %76, align 1
  %78 = sext i8 %77 to i32
  %79 = icmp eq i32 %78, 47
  br i1 %79, label %80, label %81

80:                                               ; preds = %71
  br label %87

81:                                               ; preds = %71, %68
  %82 = load ptr, ptr %6, align 8
  %83 = load i32, ptr %5, align 4
  %84 = add i32 %83, 1
  store i32 %84, ptr %5, align 4
  %85 = sext i32 %83 to i64
  %86 = getelementptr i8, ptr %82, i64 %85
  store i8 47, ptr %86, align 1
  br label %87

87:                                               ; preds = %81, %80
  br label %99

88:                                               ; preds = %60
  %89 = load ptr, ptr %3, align 8
  %90 = load i32, ptr %4, align 4
  %91 = sext i32 %90 to i64
  %92 = getelementptr i8, ptr %89, i64 %91
  %93 = load i8, ptr %92, align 1
  %94 = load ptr, ptr %6, align 8
  %95 = load i32, ptr %5, align 4
  %96 = add i32 %95, 1
  store i32 %96, ptr %5, align 4
  %97 = sext i32 %95 to i64
  %98 = getelementptr i8, ptr %94, i64 %97
  store i8 %93, ptr %98, align 1
  br label %99

99:                                               ; preds = %88, %87
  br label %100

100:                                              ; preds = %99
  %101 = load i32, ptr %4, align 4
  %102 = add i32 %101, 1
  store i32 %102, ptr %4, align 4
  br label %44, !llvm.loop !9

103:                                              ; preds = %44
  %104 = load ptr, ptr %6, align 8
  %105 = load i32, ptr %5, align 4
  %106 = sext i32 %105 to i64
  %107 = getelementptr i8, ptr %104, i64 %106
  store i8 0, ptr %107, align 1
  %108 = load ptr, ptr %6, align 8
  %109 = call i32 @g_path_is_absolute(ptr noundef %108)
  %110 = icmp ne i32 %109, 0
  br i1 %110, label %111, label %121

111:                                              ; preds = %103
  %112 = load ptr, ptr %6, align 8
  %113 = call i32 @g_file_test(ptr noundef %112, i32 noundef 1)
  %114 = icmp ne i32 %113, 0
  br i1 %114, label %115, label %121

115:                                              ; preds = %111
  %116 = load ptr, ptr %6, align 8
  %117 = call ptr @strstr(ptr noundef %116, ptr noundef @.str.16) #16
  %118 = icmp eq ptr %117, null
  br i1 %118, label %119, label %121

119:                                              ; preds = %115
  %120 = load ptr, ptr %6, align 8
  store ptr %120, ptr %2, align 8
  store i32 1, ptr %11, align 4
  br label %123

121:                                              ; preds = %115, %111, %103
  %122 = load ptr, ptr %6, align 8
  call void @g_free(ptr noundef %122)
  store ptr null, ptr %2, align 8
  store i32 1, ptr %11, align 4
  br label %123

123:                                              ; preds = %121, %119
  call void @llvm.lifetime.end.p0(i64 8, ptr %6) #13
  call void @llvm.lifetime.end.p0(i64 4, ptr %5) #13
  call void @llvm.lifetime.end.p0(i64 4, ptr %4) #13
  %124 = load ptr, ptr %2, align 8
  ret ptr %124
}